; Function Attrs: mustprogress uwtable
define noundef double @ucal_getGregorianChange_75(ptr noundef %cal, ptr nocapture noundef %pErrorCode) local_unnamed_addr #1 {
entry:
  %0 = load i32, ptr %pErrorCode, align 4
  %cmp.i = icmp slt i32 %0, 1
  br i1 %cmp.i, label %if.end, label %return

if.end:                                           ; preds = %entry
  %1 = icmp eq ptr %cal, null
  br i1 %1, label %if.then1, label %typeid.end

if.then1:                                         ; preds = %if.end
  store i32 1, ptr %pErrorCode, align 4
  br label %return

typeid.end:                                       ; preds = %if.end
  %2 = tail call ptr @__dynamic_cast(ptr nonnull %cal, ptr nonnull @_ZTIN6icu_758CalendarE, ptr nonnull @_ZTIN6icu_7517GregorianCalendarE, i64 0) #11
  %vtable = load ptr, ptr %cal, align 8
  %3 = getelementptr inbounds i8, ptr %vtable, i64 -8
  %4 = load ptr, ptr %3, align 8
  %__name.i.i = getelementptr inbounds i8, ptr %4, i64 8
  %5 = load ptr, ptr %__name.i.i, align 8
  %6 = load ptr, ptr getelementptr inbounds (ptr, ptr @_ZTIN6icu_7517GregorianCalendarE, i64 1), align 8
  %cmp.i.i = icmp eq ptr %5, %6
  br i1 %cmp.i.i, label %if.end9, label %if.end.i.i

if.end.i.i:                                       ; preds = %typeid.end
  %7 = load i8, ptr %5, align 1
  %cmp4.not.i.i = icmp eq i8 %7, 42
  br i1 %cmp4.not.i.i, label %typeid.end5, label %_ZNKSt9type_infoneERKS_.exit

_ZNKSt9type_infoneERKS_.exit:                     ; preds = %if.end.i.i
  %8 = load i8, ptr %6, align 1
  %cmp.i.i.i = icmp eq i8 %8, 42
  %cond.idx.i.i.i = zext i1 %cmp.i.i.i to i64
  %cond.i.i.i = getelementptr inbounds i8, ptr %6, i64 %cond.idx.i.i.i
  %call6.i.i = tail call i32 @strcmp(ptr noundef nonnull dereferenceable(1) %5, ptr noundef nonnull dereferenceable(1) %cond.i.i.i) #11
  %cmp7.i.i.not = icmp eq i32 %call6.i.i, 0
  br i1 %cmp7.i.i.not, label %if.end9, label %typeid.end5.thread

typeid.end5:                                      ; preds = %if.end.i.i
  %9 = load ptr, ptr getelementptr inbounds (ptr, ptr @_ZTIN6icu_7515ISO8601CalendarE, i64 1), align 8
  %cmp.i.i7 = icmp eq ptr %5, %9
  br i1 %cmp.i.i7, label %if.end9, label %if.then8

typeid.end5.thread:                               ; preds = %_ZNKSt9type_infoneERKS_.exit
  %10 = load ptr, ptr getelementptr inbounds (ptr, ptr @_ZTIN6icu_7515ISO8601CalendarE, i64 1), align 8
  %cmp.i.i724 = icmp eq ptr %5, %10
  br i1 %cmp.i.i724, label %if.end9, label %_ZNKSt9type_infoneERKS_.exit17

_ZNKSt9type_infoneERKS_.exit17:                   ; preds = %typeid.end5.thread
  %11 = load i8, ptr %10, align 1
  %cmp.i.i.i11 = icmp eq i8 %11, 42
  %cond.idx.i.i.i12 = zext i1 %cmp.i.i.i11 to i64
  %cond.i.i.i13 = getelementptr inbounds i8, ptr %10, i64 %cond.idx.i.i.i12
  %call6.i.i14 = tail call i32 @strcmp(ptr noundef nonnull dereferenceable(1) %5, ptr noundef nonnull dereferenceable(1) %cond.i.i.i13) #11
  %cmp7.i.i15.not = icmp eq i32 %call6.i.i14, 0
  br i1 %cmp7.i.i15.not, label %if.end9, label %if.then8

if.then8:                                         ; preds = %typeid.end5, %_ZNKSt9type_infoneERKS_.exit17
  store i32 16, ptr %pErrorCode, align 4
  br label %return

if.end9:                                          ; preds = %typeid.end5.thread, %typeid.end5, %typeid.end, %_ZNKSt9type_infoneERKS_.exit17, %_ZNKSt9type_infoneERKS_.exit
  %call10 = tail call noundef double @_ZNK6icu_7517GregorianCalendar18getGregorianChangeEv(ptr noundef nonnull align 8 dereferenceable(654) %2)
  br label %return

return:                                           ; preds = %entry, %if.end9, %if.then8, %if.then1
  %retval.0 = phi double [ 0.000000e+00, %if.then1 ], [ 0.000000e+00, %if.then8 ], [ %call10, %if.end9 ], [ 0.000000e+00, %entry ]
  ret double %retval.0
}